target datalayout = "e-m:e-p270:32:32-p271:32:32-p272:64:64-i64:64-i128:128-f80:128-n8:16:32:64-S128"
target triple = "x86_64-pc-linux-gnu"

%"class.sat::literal" = type { i32 }
%class.symbol = type { ptr }
%"class.smt::theory_lra" = type { %"class.smt::theory.base", %"class.smt::theory_opt", ptr }
%"class.smt::theory.base" = type <{ ptr, i32, [4 x i8], ptr, ptr, %class.ptr_vector, %class.svector, i32, i8 }>
%class.ptr_vector = type { %class.vector }
%class.vector = type { ptr }
%class.svector = type { %class.vector.0 }
%class.vector.0 = type { ptr }
%"class.smt::theory_opt" = type { ptr }
%class.arith_util = type { ptr, ptr }
%class.u_map = type { %class.map }
%class.map = type { %class.table2map }
%class.table2map = type { %class.core_hashtable.10 }
%class.core_hashtable.10 = type <{ ptr, i32, i32, i32, [4 x i8] }>
%class.obj_ref = type { ptr, ptr }
%class.ptr_vector.53 = type { %class.vector.54 }
%class.vector.54 = type { ptr }
%class.svector.88 = type { %class.vector.89 }
%class.vector.89 = type { ptr }
%class.ptr_vector.6 = type { %class.vector.7 }
%class.vector.7 = type { ptr }
%class.svector.194 = type { %class.vector.195 }
%class.vector.195 = type { ptr }
%class.ref_vector = type { %class.ref_vector_core }
%class.ref_vector_core = type { %class.ref_manager_wrapper, %class.ptr_vector.6 }
%class.ref_manager_wrapper = type { ptr }
%class.uint_set = type { %class.svector }
%"struct.smt::theory_lra::imp::var_value_hash" = type { ptr }
%"struct.smt::theory_lra::imp::var_value_eq" = type { ptr }
%"class.smt::theory_lra::imp" = type { ptr, ptr, %class.arith_util, %"class.smt::arith_eq_adapter", %class.vector.295, %class.ptr_vector.296, i32, %class.vector.298, i32, i32, i32, i32, %class.svector.299, %class.svector.194, %class.svector.291, %class.svector.88, %class.svector.301, %class.ptr_vector.6, %class.ptr_vector.53, %class.ptr_vector.53, %class.vector.303, %class.u_map.304, %class.vector.303, %class.svector, %class.svector, i32, %class.svector, %class.svector.309, i32, %class.indexed_uint_set, i32, %class.scoped_ptr.311, %class.scoped_ptr.312, %class.int_hashtable, %class.svector.315, %"struct.lp_api::stats", ptr, %class.scoped_ptr.317, %"class.smt::theory_lra::imp::resource_limit", %class.ptr_vector.318, %class.symbol, %class.vector.320, %"class.std::vector", %"class.lp::lp_bound_propagator", %class.vector.295, %class.map.327, %class.vector.331, i8, %"class.nla::lemma", i8, %class.svector.194, %class.svector, %class.vector.331, %class.vector.331, %class.vector.331, %"class.lp::explanation", %class.svector.194, %class.svector.291, %class.vector.320, i32, i32, %"class.sat::literal", %class.ref_vector, %class.obj_ref }
%"class.smt::arith_eq_adapter" = type { %"struct.smt::arith_eq_adapter_stats", ptr, ptr, %class.obj_pair_map.286, %class.svector.291, %class.svector.293 }
%"struct.smt::arith_eq_adapter_stats" = type { i32 }
%class.obj_pair_map.286 = type { %class.core_hashtable.287 }
%class.core_hashtable.287 = type <{ ptr, i32, i32, i32, [4 x i8] }>
%class.svector.293 = type { %class.vector.294 }
%class.vector.294 = type { ptr }
%class.ptr_vector.296 = type { %class.vector.297 }
%class.vector.297 = type { ptr }
%class.vector.298 = type { ptr }
%class.svector.299 = type { %class.vector.300 }
%class.vector.300 = type { ptr }
%class.svector.301 = type { %class.vector.302 }
%class.vector.302 = type { ptr }
%class.u_map.304 = type { %class.map.305 }
%class.map.305 = type { %class.table2map.306 }
%class.table2map.306 = type { %class.core_hashtable.307 }
%class.core_hashtable.307 = type <{ ptr, i32, i32, i32, [4 x i8] }>
%class.vector.303 = type { ptr }
%class.svector.309 = type { %class.vector.310 }
%class.vector.310 = type { ptr }
%class.indexed_uint_set = type { i32, %class.svector, %class.svector }
%class.scoped_ptr.311 = type { ptr }
%class.scoped_ptr.312 = type { ptr }
%class.int_hashtable = type { %class.core_hashtable.base.314, [4 x i8] }
%class.core_hashtable.base.314 = type <{ %"struct.smt::theory_lra::imp::var_value_hash", %"struct.smt::theory_lra::imp::var_value_eq", ptr, i32, i32, i32 }>
%class.svector.315 = type { %class.vector.316 }
%class.vector.316 = type { ptr }
%"struct.lp_api::stats" = type { i32, i32, i32, i32, i32, i32, i32, i32, i32, i32, i32, i32, i32, i32, i32, i32 }
%class.scoped_ptr.317 = type { ptr }
%"class.smt::theory_lra::imp::resource_limit" = type { %"class.lp::lp_resource_limit", ptr }
%"class.lp::lp_resource_limit" = type { ptr }
%class.ptr_vector.318 = type { %class.vector.319 }
%class.vector.319 = type { ptr }
%"class.std::vector" = type { %"struct.std::_Vector_base" }
%"struct.std::_Vector_base" = type { %"struct.std::_Vector_base<lp::implied_bound, std_allocator<lp::implied_bound>>::_Vector_impl" }
%"struct.std::_Vector_base<lp::implied_bound, std_allocator<lp::implied_bound>>::_Vector_impl" = type { %"struct.std::_Vector_base<lp::implied_bound, std_allocator<lp::implied_bound>>::_Vector_impl_data" }
%"struct.std::_Vector_base<lp::implied_bound, std_allocator<lp::implied_bound>>::_Vector_impl_data" = type { ptr, ptr, ptr }
%"class.lp::lp_bound_propagator" = type { %class.uint_set, %class.u_map, %class.u_map, ptr, ptr, %class.map.321, %class.map.321, %class.map.321, ptr }
%class.map.321 = type { %class.table2map.322 }
%class.table2map.322 = type { %class.core_hashtable.323 }
%class.core_hashtable.323 = type <{ ptr, i32, i32, i32, [4 x i8] }>
%class.vector.295 = type { ptr }
%class.map.327 = type { %class.table2map.328 }
%class.table2map.328 = type { %class.core_hashtable.329 }
%class.core_hashtable.329 = type <{ ptr, i32, i32, i32, [4 x i8] }>
%"class.nla::lemma" = type { %class.vector.332, %"class.lp::explanation" }
%class.vector.332 = type { ptr }
%class.vector.331 = type { ptr }
%"class.lp::explanation" = type { %class.vector.331, %class.hashtable }
%class.hashtable = type { %class.core_hashtable.base.334, [4 x i8] }
%class.core_hashtable.base.334 = type <{ ptr, i32, i32, i32 }>
%class.svector.291 = type { %class.vector.292 }
%class.vector.292 = type { ptr }
%class.vector.320 = type { ptr }
%"struct.smt::theory_lra::imp::delayed_atom" = type <{ i32, i8, [3 x i8] }>

; Function Attrs: mustprogress uwtable
define linkonce_odr hidden noundef nonnull align 8 dereferenceable(8) ptr @_ZN6vectorIN3smt10theory_lra3imp12delayed_atomELb0EjE9push_backEOS3_(ptr noundef nonnull align 8 dereferenceable(8) %0, ptr noundef nonnull align 4 dereferenceable(5) %1) #6 comdat align 2 {
  %3 = alloca ptr, align 8
  %4 = alloca ptr, align 8
  store ptr %0, ptr %3, align 8, !tbaa !977
  store ptr %1, ptr %4, align 8, !tbaa !1633
  %5 = load ptr, ptr %3, align 8
  %6 = getelementptr inbounds nuw %class.vector.302, ptr %5, i32 0, i32 0
  %7 = load ptr, ptr %6, align 8, !tbaa !1024
  %8 = icmp eq ptr %7, null
  br i1 %8, label %19, label %9

9:                                                ; preds = %2
  %10 = getelementptr inbounds nuw %class.vector.302, ptr %5, i32 0, i32 0
  %11 = load ptr, ptr %10, align 8, !tbaa !1024
  %12 = getelementptr inbounds i32, ptr %11, i64 -1
  %13 = load i32, ptr %12, align 4, !tbaa !8
  %14 = getelementptr inbounds nuw %class.vector.302, ptr %5, i32 0, i32 0
  %15 = load ptr, ptr %14, align 8, !tbaa !1024
  %16 = getelementptr inbounds i32, ptr %15, i64 -2
  %17 = load i32, ptr %16, align 4, !tbaa !8
  %18 = icmp eq i32 %13, %17
  br i1 %18, label %19, label %20

19:                                               ; preds = %9, %2
  call void @_ZN6vectorIN3smt10theory_lra3imp12delayed_atomELb0EjE13expand_vectorEv(ptr noundef nonnull align 8 dereferenceable(8) %5)
  br label %20

20:                                               ; preds = %19, %9
  %21 = getelementptr inbounds nuw %class.vector.302, ptr %5, i32 0, i32 0
  %22 = load ptr, ptr %21, align 8, !tbaa !1024
  %23 = getelementptr inbounds nuw %class.vector.302, ptr %5, i32 0, i32 0
  %24 = load ptr, ptr %23, align 8, !tbaa !1024
  %25 = getelementptr inbounds i32, ptr %24, i64 -1
  %26 = load i32, ptr %25, align 4, !tbaa !8
  %27 = zext i32 %26 to i64
  %28 = getelementptr inbounds nuw %"struct.smt::theory_lra::imp::delayed_atom", ptr %22, i64 %27
  %29 = load ptr, ptr %4, align 8, !tbaa !1633
  call void @llvm.memcpy.p0.p0.i64(ptr align 4 %28, ptr align 4 %29, i64 8, i1 false), !tbaa.struct !1634
  %30 = getelementptr inbounds nuw %class.vector.302, ptr %5, i32 0, i32 0
  %31 = load ptr, ptr %30, align 8, !tbaa !1024
  %32 = getelementptr inbounds i32, ptr %31, i64 -1
  %33 = load i32, ptr %32, align 4, !tbaa !8
  %34 = add i32 %33, 1
  store i32 %34, ptr %32, align 4, !tbaa !8
  ret ptr %5
}

; Function Attrs: mustprogress nounwind uwtable
define linkonce_odr hidden void @_ZN3smt10theory_lra3imp12delayed_atomC2Ejb(ptr noundef nonnull align 4 dereferenceable(5) %0, i32 noundef %1, i1 noundef zeroext %2) unnamed_addr #4 comdat align 2 {
  %4 = alloca ptr, align 8
  %5 = alloca i32, align 4
  %6 = alloca i8, align 1
  store ptr %0, ptr %4, align 8, !tbaa !1633
  store i32 %1, ptr %5, align 4, !tbaa !8
  %7 = zext i1 %2 to i8
  store i8 %7, ptr %6, align 1, !tbaa !10
  %8 = load ptr, ptr %4, align 8
  %9 = getelementptr inbounds nuw %"struct.smt::theory_lra::imp::delayed_atom", ptr %8, i32 0, i32 0
  %10 = load i32, ptr %5, align 4, !tbaa !8
  store i32 %10, ptr %9, align 4, !tbaa !1635
  %11 = getelementptr inbounds nuw %"struct.smt::theory_lra::imp::delayed_atom", ptr %8, i32 0, i32 1
  %12 = load i8, ptr %6, align 1, !tbaa !10, !range !12, !noundef !13
  %13 = trunc i8 %12 to i1
  %14 = zext i1 %13 to i8
  store i8 %14, ptr %11, align 4, !tbaa !1637
  ret void
}

; Function Attrs: mustprogress uwtable
define linkonce_odr hidden void @_ZN3smt10theory_lra3imp9assign_ehEjb(ptr noundef nonnull align 8 dereferenceable(928) %0, i32 noundef %1, i1 noundef zeroext %2) #6 comdat align 2 {
  %4 = alloca ptr, align 8
  %5 = alloca i32, align 4
  %6 = alloca i8, align 1
  %7 = alloca %"struct.smt::theory_lra::imp::delayed_atom", align 4
  store ptr %0, ptr %4, align 8, !tbaa !535
  store i32 %1, ptr %5, align 4, !tbaa !8
  %8 = zext i1 %2 to i8
  store i8 %8, ptr %6, align 1, !tbaa !10
  %9 = load ptr, ptr %4, align 8
  %10 = getelementptr inbounds nuw %"class.smt::theory_lra::imp", ptr %9, i32 0, i32 16
  call void @llvm.lifetime.start.p0(i64 8, ptr %7) #3
  %11 = load i32, ptr %5, align 4, !tbaa !8
  %12 = load i8, ptr %6, align 1, !tbaa !10, !range !12, !noundef !13
  %13 = trunc i8 %12 to i1
  call void @_ZN3smt10theory_lra3imp12delayed_atomC2Ejb(ptr noundef nonnull align 4 dereferenceable(5) %7, i32 noundef %11, i1 noundef zeroext %13)
  %14 = call noundef nonnull align 8 dereferenceable(8) ptr @_ZN6vectorIN3smt10theory_lra3imp12delayed_atomELb0EjE9push_backEOS3_(ptr noundef nonnull align 8 dereferenceable(8) %10, ptr noundef nonnull align 4 dereferenceable(5) %7)
  call void @llvm.lifetime.end.p0(i64 8, ptr %7) #3
  ret void
}

; Function Attrs: mustprogress uwtable
define hidden void @_ZN3smt10theory_lra9assign_ehEjb(ptr noundef nonnull align 8 dereferenceable(72) %0, i32 noundef %1, i1 noundef zeroext %2) unnamed_addr #6 align 2 {
  %4 = alloca ptr, align 8
  %5 = alloca i32, align 4
  %6 = alloca i8, align 1
  store ptr %0, ptr %4, align 8, !tbaa !28
  store i32 %1, ptr %5, align 4, !tbaa !8
  %7 = zext i1 %2 to i8
  store i8 %7, ptr %6, align 1, !tbaa !10
  %8 = load ptr, ptr %4, align 8
  %9 = getelementptr inbounds nuw %"class.smt::theory_lra", ptr %8, i32 0, i32 2
  %10 = load ptr, ptr %9, align 8, !tbaa !34
  %11 = load i32, ptr %5, align 4, !tbaa !8
  %12 = load i8, ptr %6, align 1, !tbaa !10, !range !12, !noundef !13
  %13 = trunc i8 %12 to i1
  call void @_ZN3smt10theory_lra3imp9assign_ehEjb(ptr noundef nonnull align 8 dereferenceable(928) %10, i32 noundef %11, i1 noundef zeroext %13)
  ret void
}