; Function Attrs: mustprogress uwtable
define hidden void @_ZN3smt10theory_lra9assign_ehEjb(ptr noundef nonnull readonly align 8 captures(none) dereferenceable(72) %0, i32 noundef %1, i1 noundef zeroext %2) unnamed_addr #4 align 2 {
  %4 = getelementptr inbounds nuw i8, ptr %0, i64 64
  %5 = load ptr, ptr %4, align 8, !tbaa !506
  %6 = getelementptr inbounds nuw i8, ptr %5, i64 176
  %7 = load ptr, ptr %6, align 8, !tbaa !758
  %8 = icmp eq ptr %7, null
  br i1 %8, label %15, label %9

9:                                                ; preds = %3
  %10 = getelementptr inbounds i8, ptr %7, i64 -4
  %11 = load i32, ptr %10, align 4, !tbaa !652
  %12 = getelementptr inbounds i8, ptr %7, i64 -8
  %13 = load i32, ptr %12, align 4, !tbaa !652
  %14 = icmp eq i32 %11, %13
  br i1 %14, label %15, label %_ZN3smt10theory_lra3imp9assign_ehEjb.exit

15:                                               ; preds = %9, %3
  tail call void @_ZN6vectorIN3smt10theory_lra3imp12delayed_atomELb0EjE13expand_vectorEv(ptr noundef nonnull align 8 dereferenceable(8) %6)
  %.pre.i.i = load ptr, ptr %6, align 8, !tbaa !758
  %.phi.trans.insert.i.i = getelementptr inbounds i8, ptr %.pre.i.i, i64 -4
  %.pre2.i.i = load i32, ptr %.phi.trans.insert.i.i, align 4, !tbaa !652
  br label %_ZN3smt10theory_lra3imp9assign_ehEjb.exit

_ZN3smt10theory_lra3imp9assign_ehEjb.exit:        ; preds = %9, %15
  %16 = phi i32 [ %.pre2.i.i, %15 ], [ %11, %9 ]
  %17 = phi ptr [ %.pre.i.i, %15 ], [ %7, %9 ]
  %18 = zext i32 %16 to i64
  %19 = getelementptr inbounds nuw %"struct.smt::theory_lra::imp::delayed_atom", ptr %17, i64 %18
  %.sroa.4.0.insert.shift.i = select i1 %2, i64 4294967296, i64 0
  %.sroa.0.0.insert.ext.i = zext i32 %1 to i64
  %.sroa.0.0.insert.insert.i = or disjoint i64 %.sroa.4.0.insert.shift.i, %.sroa.0.0.insert.ext.i
  store i64 %.sroa.0.0.insert.insert.i, ptr %19, align 4
  %20 = load ptr, ptr %6, align 8, !tbaa !758
  %21 = getelementptr inbounds i8, ptr %20, i64 -4
  %22 = load i32, ptr %21, align 4, !tbaa !652
  %23 = add i32 %22, 1
  store i32 %23, ptr %21, align 4, !tbaa !652
  ret void
}